; Function Attrs: nounwind uwtable
define internal ptr @xmlparser_new(ptr noundef %0, ptr readnone captures(none) %1, ptr readnone captures(none) %2) #0 {
  %4 = getelementptr inbounds nuw i8, ptr %0, i64 304
  %5 = load ptr, ptr %4, align 8, !tbaa !105
  %6 = tail call ptr %5(ptr noundef %0, i64 noundef 0) #12
  %.not = icmp eq ptr %6, null
  br i1 %.not, label %18, label %7

7:                                                ; preds = %3
  %8 = getelementptr inbounds nuw i8, ptr %6, i64 16
  tail call void @llvm.memset.p0.i64(ptr noundef nonnull align 8 dereferenceable(104) %8, i8 0, i64 104, i1 false)
  %9 = tail call ptr @PyType_GetModuleByDef(ptr noundef nonnull %0, ptr noundef nonnull @elementtreemodule) #12
  %10 = getelementptr inbounds nuw i8, ptr %6, i64 128
  store ptr %9, ptr %10, align 8, !tbaa !180
  %11 = load i32, ptr %9, align 8, !tbaa !21
  %12 = icmp slt i32 %11, 0
  br i1 %12, label %Py_INCREF.exit, label %13

13:                                               ; preds = %7
  %14 = add nuw i32 %11, 1
  store i32 %14, ptr %9, align 8, !tbaa !21
  %.pre = load ptr, ptr %10, align 8, !tbaa !180
  br label %Py_INCREF.exit

Py_INCREF.exit:                                   ; preds = %7, %13
  %15 = phi ptr [ %9, %7 ], [ %.pre, %13 ]
  %16 = tail call ptr @PyModule_GetState(ptr noundef %15) #12
  %17 = getelementptr inbounds nuw i8, ptr %6, i64 120
  store ptr %16, ptr %17, align 8, !tbaa !166
  br label %18

18:                                               ; preds = %Py_INCREF.exit, %3
  ret ptr %6
}